; Function Attrs: nounwind uwtable
define range(i32 0, 2) i32 @tls_construct_end_of_early_data(ptr noundef %0, ptr readnone captures(none) %1) #0 {
  %3 = getelementptr inbounds nuw i8, ptr %0, i64 240
  %4 = load i32, ptr %3, align 8, !tbaa !97
  switch i32 %4, label %5 [
    i32 3, label %6
    i32 7, label %6
  ]

5:                                                ; preds = %2
  tail call void @ERR_new() #8
  tail call void @ERR_set_debug(ptr noundef nonnull @.str, i32 noundef 4185, ptr noundef nonnull @__func__.tls_construct_end_of_early_data) #8
  tail call void (ptr, i32, i32, ptr, ...) @ossl_statem_fatal(ptr noundef nonnull %0, i32 noundef 80, i32 noundef 786689, ptr noundef null) #8
  br label %7

6:                                                ; preds = %2, %2
  store i32 7, ptr %3, align 8, !tbaa !97
  br label %7

7:                                                ; preds = %6, %5
  %.0 = phi i32 [ 0, %5 ], [ 1, %6 ]
  ret i32 %.0
}